; Function Attrs: mustprogress uwtable
define void @_ZN3nix6Source9drainIntoERNS_4SinkE(ptr noundef nonnull align 8 dereferenceable(8) %0, ptr noundef nonnull align 8 dereferenceable(8) %1) local_unnamed_addr #2 align 2 personality ptr @__gxx_personality_v0 {
  %3 = alloca %"class.std::allocator.0", align 1
  %4 = alloca %"class.std::__cxx11::basic_string", align 8
  %5 = alloca %"struct.std::array", align 1
  call void @llvm.lifetime.start.p0(i64 1, ptr nonnull %3)
  %6 = getelementptr inbounds i8, ptr %4, i64 16
  call void @_ZNSaIcEC1Ev(ptr noundef nonnull align 1 dereferenceable(1) %3) #34
  call void @_ZNSaIcEC2ERKS_(ptr noundef nonnull align 1 dereferenceable(1) %4, ptr noundef nonnull align 1 dereferenceable(1) %3) #34
  store ptr %6, ptr %4, align 8
  call void @_ZNSaIcED1Ev(ptr noundef nonnull align 1 dereferenceable(1) %3) #34
  %7 = getelementptr inbounds i8, ptr %4, i64 8
  store i64 0, ptr %7, align 8
  %8 = load ptr, ptr %4, align 8
  store i8 0, ptr %8, align 1
  call void @llvm.lifetime.end.p0(i64 1, ptr nonnull %3)
  br label %9

9:                                                ; preds = %14, %2
  %10 = load ptr, ptr %0, align 8
  %11 = getelementptr inbounds i8, ptr %10, i64 16
  %12 = load ptr, ptr %11, align 8
  %13 = invoke noundef i64 %12(ptr noundef nonnull align 8 dereferenceable(8) %0, ptr noundef nonnull %5, i64 noundef 8192)
          to label %14 unwind label %18

14:                                               ; preds = %9
  %15 = load ptr, ptr %1, align 8
  %16 = getelementptr inbounds i8, ptr %15, i64 16
  %17 = load ptr, ptr %16, align 8
  invoke void %17(ptr noundef nonnull align 8 dereferenceable(8) %1, i64 %13, ptr nonnull %5)
          to label %9 unwind label %18, !llvm.loop !10

18:                                               ; preds = %14, %9
  %19 = landingpad { ptr, i32 }
          cleanup
          catch ptr @_ZTIN3nix9EndOfFileE
  %20 = extractvalue { ptr, i32 } %19, 1
  %21 = call i32 @llvm.eh.typeid.for(ptr nonnull @_ZTIN3nix9EndOfFileE) #34
  %22 = icmp eq i32 %20, %21
  br i1 %22, label %23, label %33

23:                                               ; preds = %18
  %24 = extractvalue { ptr, i32 } %19, 0
  %25 = call ptr @__cxa_begin_catch(ptr %24) #34
  invoke void @__cxa_end_catch()
          to label %28 unwind label %26

26:                                               ; preds = %23
  %27 = landingpad { ptr, i32 }
          cleanup
  br label %33

28:                                               ; preds = %23
  %29 = load ptr, ptr %4, align 8
  %30 = icmp eq ptr %29, %6
  br i1 %30, label %_ZNKSt7__cxx1112basic_stringIcSt11char_traitsIcESaIcEE11_M_is_localEv.exit.thread.i.i, label %_ZNKSt7__cxx1112basic_stringIcSt11char_traitsIcESaIcEE11_M_is_localEv.exit.i.i

_ZNKSt7__cxx1112basic_stringIcSt11char_traitsIcESaIcEE11_M_is_localEv.exit.thread.i.i: ; preds = %28
  %31 = load i64, ptr %7, align 8
  %32 = icmp ult i64 %31, 16
  call void @llvm.assume(i1 %32)
  br label %_ZNSt7__cxx1112basic_stringIcSt11char_traitsIcESaIcEED2Ev.exit

_ZNKSt7__cxx1112basic_stringIcSt11char_traitsIcESaIcEE11_M_is_localEv.exit.i.i: ; preds = %28
  call void @_ZdlPv(ptr noundef %29) #36
  br label %_ZNSt7__cxx1112basic_stringIcSt11char_traitsIcESaIcEED2Ev.exit

_ZNSt7__cxx1112basic_stringIcSt11char_traitsIcESaIcEED2Ev.exit: ; preds = %_ZNKSt7__cxx1112basic_stringIcSt11char_traitsIcESaIcEE11_M_is_localEv.exit.thread.i.i, %_ZNKSt7__cxx1112basic_stringIcSt11char_traitsIcESaIcEE11_M_is_localEv.exit.i.i
  call void @_ZNSaIcED2Ev(ptr noundef nonnull align 1 dereferenceable(1) %4) #34
  ret void

33:                                               ; preds = %26, %18
  %.merged = phi { ptr, i32 } [ %27, %26 ], [ %19, %18 ]
  %34 = load ptr, ptr %4, align 8
  %35 = icmp eq ptr %34, %6
  br i1 %35, label %_ZNKSt7__cxx1112basic_stringIcSt11char_traitsIcESaIcEE11_M_is_localEv.exit.thread.i.i9, label %_ZNKSt7__cxx1112basic_stringIcSt11char_traitsIcESaIcEE11_M_is_localEv.exit.i.i8

_ZNKSt7__cxx1112basic_stringIcSt11char_traitsIcESaIcEE11_M_is_localEv.exit.thread.i.i9: ; preds = %33
  %36 = load i64, ptr %7, align 8
  %37 = icmp ult i64 %36, 16
  call void @llvm.assume(i1 %37)
  br label %_ZNSt7__cxx1112basic_stringIcSt11char_traitsIcESaIcEED2Ev.exit10

_ZNKSt7__cxx1112basic_stringIcSt11char_traitsIcESaIcEE11_M_is_localEv.exit.i.i8: ; preds = %33
  call void @_ZdlPv(ptr noundef %34) #36
  br label %_ZNSt7__cxx1112basic_stringIcSt11char_traitsIcESaIcEED2Ev.exit10

_ZNSt7__cxx1112basic_stringIcSt11char_traitsIcESaIcEED2Ev.exit10: ; preds = %_ZNKSt7__cxx1112basic_stringIcSt11char_traitsIcESaIcEE11_M_is_localEv.exit.thread.i.i9, %_ZNKSt7__cxx1112basic_stringIcSt11char_traitsIcESaIcEE11_M_is_localEv.exit.i.i8
  call void @_ZNSaIcED2Ev(ptr noundef nonnull align 1 dereferenceable(1) %4) #34
  resume { ptr, i32 } %.merged
}